target datalayout = "e-m:e-p270:32:32-p271:32:32-p272:64:64-i64:64-i128:128-f80:128-n8:16:32:64-S128"
target triple = "x86_64-pc-linux-gnu"

%struct.Aes = type { [60 x i32], i32, i32, [8 x i8], [4 x i32], [4 x i32], [2 x i32], i32, [4 x i8], %struct.Gcm, ptr, [8 x i8] }
%struct.Gcm = type { [16 x i8], [32 x [16 x i8]] }
%union.anon = type { ptr }
%union.anon.0 = type { ptr }

; Function Attrs: inlinehint nounwind uwtable
define internal void @XorWords(ptr noundef %0, ptr noundef %1, i32 noundef %2) #4 {
  %4 = alloca ptr, align 8
  %5 = alloca ptr, align 8
  %6 = alloca i32, align 4
  %7 = alloca i32, align 4
  store ptr %0, ptr %4, align 8, !tbaa !57
  store ptr %1, ptr %5, align 8, !tbaa !57
  store i32 %2, ptr %6, align 4, !tbaa !10
  call void @llvm.lifetime.start.p0(i64 4, ptr %7) #6
  store i32 0, ptr %7, align 4, !tbaa !10
  br label %8

8:                                                ; preds = %22, %3
  %9 = load i32, ptr %7, align 4, !tbaa !10
  %10 = load i32, ptr %6, align 4, !tbaa !10
  %11 = icmp ult i32 %9, %10
  br i1 %11, label %12, label %25

12:                                               ; preds = %8
  %13 = load ptr, ptr %5, align 8, !tbaa !57
  %14 = load ptr, ptr %13, align 8, !tbaa !30
  %15 = getelementptr inbounds nuw i64, ptr %14, i32 1
  store ptr %15, ptr %13, align 8, !tbaa !30
  %16 = load i64, ptr %14, align 8, !tbaa !32
  %17 = load ptr, ptr %4, align 8, !tbaa !57
  %18 = load ptr, ptr %17, align 8, !tbaa !30
  %19 = getelementptr inbounds nuw i64, ptr %18, i32 1
  store ptr %19, ptr %17, align 8, !tbaa !30
  %20 = load i64, ptr %18, align 8, !tbaa !32
  %21 = xor i64 %20, %16
  store i64 %21, ptr %18, align 8, !tbaa !32
  br label %22

22:                                               ; preds = %12
  %23 = load i32, ptr %7, align 4, !tbaa !10
  %24 = add i32 %23, 1
  store i32 %24, ptr %7, align 4, !tbaa !10
  br label %8, !llvm.loop !59

25:                                               ; preds = %8
  call void @llvm.lifetime.end.p0(i64 4, ptr %7) #6
  ret void
}

; Function Attrs: inlinehint nounwind uwtable
define internal void @xorbuf(ptr noundef %0, ptr noundef %1, i32 noundef %2) #4 {
  %4 = alloca ptr, align 8
  %5 = alloca ptr, align 8
  %6 = alloca i32, align 4
  %7 = alloca i32, align 4
  %8 = alloca ptr, align 8
  %9 = alloca ptr, align 8
  %10 = alloca %union.anon, align 8
  %11 = alloca %union.anon.0, align 8
  store ptr %0, ptr %4, align 8, !tbaa !18
  store ptr %1, ptr %5, align 8, !tbaa !18
  store i32 %2, ptr %6, align 4, !tbaa !10
  call void @llvm.lifetime.start.p0(i64 4, ptr %7) #6
  call void @llvm.lifetime.start.p0(i64 8, ptr %8) #6
  call void @llvm.lifetime.start.p0(i64 8, ptr %9) #6
  %12 = load ptr, ptr %4, align 8, !tbaa !18
  store ptr %12, ptr %8, align 8, !tbaa !8
  %13 = load ptr, ptr %5, align 8, !tbaa !18
  store ptr %13, ptr %9, align 8, !tbaa !8
  %14 = load ptr, ptr %8, align 8, !tbaa !8
  %15 = ptrtoint ptr %14 to i64
  %16 = urem i64 %15, 8
  %17 = load ptr, ptr %9, align 8, !tbaa !8
  %18 = ptrtoint ptr %17 to i64
  %19 = urem i64 %18, 8
  %20 = icmp eq i64 %16, %19
  br i1 %20, label %21, label %54

21:                                               ; preds = %3
  call void @llvm.lifetime.start.p0(i64 8, ptr %10) #6
  call void @llvm.lifetime.start.p0(i64 8, ptr %11) #6
  br label %22

22:                                               ; preds = %32, %21
  %23 = load ptr, ptr %4, align 8, !tbaa !18
  %24 = ptrtoint ptr %23 to i64
  %25 = urem i64 %24, 8
  %26 = icmp ne i64 %25, 0
  br i1 %26, label %27, label %30

27:                                               ; preds = %22
  %28 = load i32, ptr %6, align 4, !tbaa !10
  %29 = icmp ugt i32 %28, 0
  br label %30

30:                                               ; preds = %27, %22
  %31 = phi i1 [ false, %22 ], [ %29, %27 ]
  br i1 %31, label %32, label %45

32:                                               ; preds = %30
  %33 = load ptr, ptr %9, align 8, !tbaa !8
  %34 = getelementptr inbounds nuw i8, ptr %33, i32 1
  store ptr %34, ptr %9, align 8, !tbaa !8
  %35 = load i8, ptr %33, align 1, !tbaa !19
  %36 = zext i8 %35 to i32
  %37 = load ptr, ptr %8, align 8, !tbaa !8
  %38 = getelementptr inbounds nuw i8, ptr %37, i32 1
  store ptr %38, ptr %8, align 8, !tbaa !8
  %39 = load i8, ptr %37, align 1, !tbaa !19
  %40 = zext i8 %39 to i32
  %41 = xor i32 %40, %36
  %42 = trunc i32 %41 to i8
  store i8 %42, ptr %37, align 1, !tbaa !19
  %43 = load i32, ptr %6, align 4, !tbaa !10
  %44 = add i32 %43, -1
  store i32 %44, ptr %6, align 4, !tbaa !10
  br label %22, !llvm.loop !20

45:                                               ; preds = %30
  %46 = load ptr, ptr %8, align 8, !tbaa !8
  store ptr %46, ptr %10, align 8, !tbaa !19
  %47 = load ptr, ptr %9, align 8, !tbaa !8
  store ptr %47, ptr %11, align 8, !tbaa !19
  %48 = load i32, ptr %6, align 4, !tbaa !10
  %49 = udiv i32 %48, 8
  call void @XorWords(ptr noundef %10, ptr noundef %11, i32 noundef %49)
  %50 = load ptr, ptr %10, align 8, !tbaa !19
  store ptr %50, ptr %8, align 8, !tbaa !8
  %51 = load ptr, ptr %11, align 8, !tbaa !19
  store ptr %51, ptr %9, align 8, !tbaa !8
  %52 = load i32, ptr %6, align 4, !tbaa !10
  %53 = urem i32 %52, 8
  store i32 %53, ptr %6, align 4, !tbaa !10
  call void @llvm.lifetime.end.p0(i64 8, ptr %11) #6
  call void @llvm.lifetime.end.p0(i64 8, ptr %10) #6
  br label %54

54:                                               ; preds = %45, %3
  store i32 0, ptr %7, align 4, !tbaa !10
  br label %55

55:                                               ; preds = %74, %54
  %56 = load i32, ptr %7, align 4, !tbaa !10
  %57 = load i32, ptr %6, align 4, !tbaa !10
  %58 = icmp ult i32 %56, %57
  br i1 %58, label %59, label %77

59:                                               ; preds = %55
  %60 = load ptr, ptr %9, align 8, !tbaa !8
  %61 = load i32, ptr %7, align 4, !tbaa !10
  %62 = zext i32 %61 to i64
  %63 = getelementptr inbounds nuw i8, ptr %60, i64 %62
  %64 = load i8, ptr %63, align 1, !tbaa !19
  %65 = zext i8 %64 to i32
  %66 = load ptr, ptr %8, align 8, !tbaa !8
  %67 = load i32, ptr %7, align 4, !tbaa !10
  %68 = zext i32 %67 to i64
  %69 = getelementptr inbounds nuw i8, ptr %66, i64 %68
  %70 = load i8, ptr %69, align 1, !tbaa !19
  %71 = zext i8 %70 to i32
  %72 = xor i32 %71, %65
  %73 = trunc i32 %72 to i8
  store i8 %73, ptr %69, align 1, !tbaa !19
  br label %74

74:                                               ; preds = %59
  %75 = load i32, ptr %7, align 4, !tbaa !10
  %76 = add i32 %75, 1
  store i32 %76, ptr %7, align 4, !tbaa !10
  br label %55, !llvm.loop !21

77:                                               ; preds = %55
  call void @llvm.lifetime.end.p0(i64 8, ptr %9) #6
  call void @llvm.lifetime.end.p0(i64 8, ptr %8) #6
  call void @llvm.lifetime.end.p0(i64 4, ptr %7) #6
  ret void
}

; Function Attrs: nounwind uwtable
define i32 @wc_AesCbcEncrypt(ptr noundef %0, ptr noundef %1, ptr noundef %2, i32 noundef %3) #0 {
  %5 = alloca i32, align 4
  %6 = alloca ptr, align 8
  %7 = alloca ptr, align 8
  %8 = alloca ptr, align 8
  %9 = alloca i32, align 4
  %10 = alloca i32, align 4
  %11 = alloca i32, align 4
  %12 = alloca i32, align 4
  store ptr %0, ptr %6, align 8, !tbaa !3
  store ptr %1, ptr %7, align 8, !tbaa !8
  store ptr %2, ptr %8, align 8, !tbaa !8
  store i32 %3, ptr %9, align 4, !tbaa !10
  call void @llvm.lifetime.start.p0(i64 4, ptr %10) #6
  call void @llvm.lifetime.start.p0(i64 4, ptr %11) #6
  %13 = load ptr, ptr %6, align 8, !tbaa !3
  %14 = icmp eq ptr %13, null
  br i1 %14, label %21, label %15

15:                                               ; preds = %4
  %16 = load ptr, ptr %7, align 8, !tbaa !8
  %17 = icmp eq ptr %16, null
  br i1 %17, label %21, label %18

18:                                               ; preds = %15
  %19 = load ptr, ptr %8, align 8, !tbaa !8
  %20 = icmp eq ptr %19, null
  br i1 %20, label %21, label %22

21:                                               ; preds = %18, %15, %4
  store i32 -173, ptr %5, align 4
  store i32 1, ptr %12, align 4
  br label %60

22:                                               ; preds = %18
  %23 = load i32, ptr %9, align 4, !tbaa !10
  %24 = icmp eq i32 %23, 0
  br i1 %24, label %25, label %26

25:                                               ; preds = %22
  store i32 0, ptr %5, align 4
  store i32 1, ptr %12, align 4
  br label %60

26:                                               ; preds = %22
  %27 = load i32, ptr %9, align 4, !tbaa !10
  %28 = udiv i32 %27, 16
  store i32 %28, ptr %10, align 4, !tbaa !10
  store i32 0, ptr %11, align 4, !tbaa !10
  br label %29

29:                                               ; preds = %49, %26
  %30 = load i32, ptr %10, align 4, !tbaa !10
  %31 = add i32 %30, -1
  store i32 %31, ptr %10, align 4, !tbaa !10
  %32 = icmp ne i32 %30, 0
  br i1 %32, label %33, label %58

33:                                               ; preds = %29
  %34 = load ptr, ptr %6, align 8, !tbaa !3
  %35 = getelementptr inbounds nuw %struct.Aes, ptr %34, i32 0, i32 4
  %36 = getelementptr inbounds [4 x i32], ptr %35, i64 0, i64 0
  %37 = load ptr, ptr %8, align 8, !tbaa !8
  call void @xorbuf(ptr noundef %36, ptr noundef %37, i32 noundef 16)
  %38 = load ptr, ptr %6, align 8, !tbaa !3
  %39 = load ptr, ptr %6, align 8, !tbaa !3
  %40 = getelementptr inbounds nuw %struct.Aes, ptr %39, i32 0, i32 4
  %41 = getelementptr inbounds [4 x i32], ptr %40, i64 0, i64 0
  %42 = load ptr, ptr %6, align 8, !tbaa !3
  %43 = getelementptr inbounds nuw %struct.Aes, ptr %42, i32 0, i32 4
  %44 = getelementptr inbounds [4 x i32], ptr %43, i64 0, i64 0
  %45 = call i32 @wc_AesEncrypt(ptr noundef %38, ptr noundef %41, ptr noundef %44)
  store i32 %45, ptr %11, align 4, !tbaa !10
  %46 = load i32, ptr %11, align 4, !tbaa !10
  %47 = icmp ne i32 %46, 0
  br i1 %47, label %48, label %49

48:                                               ; preds = %33
  br label %58

49:                                               ; preds = %33
  %50 = load ptr, ptr %7, align 8, !tbaa !8
  %51 = load ptr, ptr %6, align 8, !tbaa !3
  %52 = getelementptr inbounds nuw %struct.Aes, ptr %51, i32 0, i32 4
  %53 = getelementptr inbounds [4 x i32], ptr %52, i64 0, i64 0
  call void @llvm.memcpy.p0.p0.i64(ptr align 1 %50, ptr align 16 %53, i64 16, i1 false)
  %54 = load ptr, ptr %7, align 8, !tbaa !8
  %55 = getelementptr inbounds i8, ptr %54, i64 16
  store ptr %55, ptr %7, align 8, !tbaa !8
  %56 = load ptr, ptr %8, align 8, !tbaa !8
  %57 = getelementptr inbounds i8, ptr %56, i64 16
  store ptr %57, ptr %8, align 8, !tbaa !8
  br label %29, !llvm.loop !16

58:                                               ; preds = %48, %29
  %59 = load i32, ptr %11, align 4, !tbaa !10
  store i32 %59, ptr %5, align 4
  store i32 1, ptr %12, align 4
  br label %60

60:                                               ; preds = %58, %25, %21
  call void @llvm.lifetime.end.p0(i64 4, ptr %11) #6
  call void @llvm.lifetime.end.p0(i64 4, ptr %10) #6
  %61 = load i32, ptr %5, align 4
  ret i32 %61
}