; Function Attrs: nofree norecurse nosync nounwind memory(argmem: readwrite) uwtable
define range(i32 -226, 1) i32 @wc_AesCbcEncrypt(ptr noundef %0, ptr noundef writeonly captures(address_is_null) %1, ptr noundef %2, i32 noundef %3) local_unnamed_addr #4 {
  %5 = ptrtoint ptr %2 to i64
  %6 = icmp eq ptr %0, null
  %7 = icmp eq ptr %1, null
  %or.cond = or i1 %6, %7
  %8 = icmp eq ptr %2, null
  %or.cond3 = or i1 %or.cond, %8
  br i1 %or.cond3, label %.loopexit, label %9

9:                                                ; preds = %4
  %.not33 = icmp ult i32 %3, 16
  br i1 %.not33, label %.loopexit, label %.lr.ph

.lr.ph:                                           ; preds = %9
  %10 = lshr i32 %3, 4
  %11 = add nsw i32 %10, -1
  %12 = getelementptr i8, ptr %0, i64 256
  %13 = ptrtoint ptr %12 to i64
  %14 = and i64 %13, 7
  %.not.i = icmp eq i64 %14, 0
  %15 = and i64 %5, 7
  br i1 %.not.i, label %.lr.ph.split.us.preheader, label %.lr.ph.split.preheader

.lr.ph.split.preheader:                           ; preds = %.lr.ph
  %16 = icmp eq i64 %14, %15
  br label %.lr.ph.split

.lr.ph.split.us.preheader:                        ; preds = %.lr.ph
  %17 = icmp eq i64 %15, 0
  br label %.lr.ph.split.us

.lr.ph.split.us:                                  ; preds = %.lr.ph.split.us.preheader, %31
  %18 = phi i32 [ %34, %31 ], [ %11, %.lr.ph.split.us.preheader ]
  %.02235.us = phi ptr [ %33, %31 ], [ %2, %.lr.ph.split.us.preheader ]
  %.02334.us = phi ptr [ %32, %31 ], [ %1, %.lr.ph.split.us.preheader ]
  br i1 %17, label %.lr.ph.i.i.us, label %.lr.ph38.i.us

.lr.ph38.i.us:                                    ; preds = %.lr.ph.split.us, %.lr.ph38.i.us
  %indvars.iv.i.us = phi i64 [ %indvars.iv.next.i.us, %.lr.ph38.i.us ], [ 0, %.lr.ph.split.us ]
  %19 = getelementptr inbounds nuw i8, ptr %.02235.us, i64 %indvars.iv.i.us
  %20 = load i8, ptr %19, align 1, !tbaa !15
  %21 = getelementptr inbounds nuw i8, ptr %12, i64 %indvars.iv.i.us
  %22 = load i8, ptr %21, align 1, !tbaa !15
  %23 = xor i8 %22, %20
  store i8 %23, ptr %21, align 1, !tbaa !15
  %indvars.iv.next.i.us = add nuw nsw i64 %indvars.iv.i.us, 1
  %exitcond.not.i.us = icmp eq i64 %indvars.iv.next.i.us, 16
  br i1 %exitcond.not.i.us, label %xorbuf.exit.us, label %.lr.ph38.i.us, !llvm.loop !20

.lr.ph.i.i.us:                                    ; preds = %.lr.ph.split.us, %.lr.ph.i.i.us
  %.sroa.026.0.i.us = phi ptr [ %26, %.lr.ph.i.i.us ], [ %12, %.lr.ph.split.us ]
  %.sroa.0.0.i.us = phi ptr [ %24, %.lr.ph.i.i.us ], [ %.02235.us, %.lr.ph.split.us ]
  %.04.i.i.us = phi i32 [ %29, %.lr.ph.i.i.us ], [ 0, %.lr.ph.split.us ]
  %24 = getelementptr inbounds nuw i8, ptr %.sroa.0.0.i.us, i64 8
  %25 = load i64, ptr %.sroa.0.0.i.us, align 8, !tbaa !21
  %26 = getelementptr inbounds nuw i8, ptr %.sroa.026.0.i.us, i64 8
  %27 = load i64, ptr %.sroa.026.0.i.us, align 8, !tbaa !21
  %28 = xor i64 %27, %25
  store i64 %28, ptr %.sroa.026.0.i.us, align 8, !tbaa !21
  %29 = add nuw nsw i32 %.04.i.i.us, 1
  %exitcond.not.i.i.us = icmp eq i32 %29, 2
  br i1 %exitcond.not.i.i.us, label %xorbuf.exit.us, label %.lr.ph.i.i.us, !llvm.loop !23

xorbuf.exit.us:                                   ; preds = %.lr.ph38.i.us, %.lr.ph.i.i.us
  %30 = tail call fastcc i32 @wc_AesEncrypt(ptr noundef %0, ptr noundef %12, ptr noundef %12)
  %.not30.us = icmp eq i32 %30, 0
  br i1 %.not30.us, label %31, label %.loopexit

31:                                               ; preds = %xorbuf.exit.us
  tail call void @llvm.memcpy.p0.p0.i64(ptr noundef nonnull align 1 dereferenceable(16) %.02334.us, ptr noundef nonnull align 16 dereferenceable(16) %12, i64 16, i1 false)
  %32 = getelementptr inbounds nuw i8, ptr %.02334.us, i64 16
  %33 = getelementptr inbounds nuw i8, ptr %.02235.us, i64 16
  %34 = add nsw i32 %18, -1
  %.not.us = icmp eq i32 %18, 0
  br i1 %.not.us, label %.loopexit, label %.lr.ph.split.us, !llvm.loop !24

.lr.ph.split:                                     ; preds = %.lr.ph.split.preheader, %48
  %35 = phi i32 [ %51, %48 ], [ %11, %.lr.ph.split.preheader ]
  %.02235 = phi ptr [ %50, %48 ], [ %2, %.lr.ph.split.preheader ]
  %.02334 = phi ptr [ %49, %48 ], [ %1, %.lr.ph.split.preheader ]
  br i1 %16, label %.lr.ph.split.i, label %.lr.ph38.i

.lr.ph.split.i:                                   ; preds = %.lr.ph.split, %.lr.ph.split.i
  %.131.i = phi ptr [ %36, %.lr.ph.split.i ], [ %.02235, %.lr.ph.split ]
  %.12030.i = phi ptr [ %38, %.lr.ph.split.i ], [ %12, %.lr.ph.split ]
  %.12329.i = phi i32 [ %41, %.lr.ph.split.i ], [ 16, %.lr.ph.split ]
  %36 = getelementptr inbounds nuw i8, ptr %.131.i, i64 1
  %37 = load i8, ptr %.131.i, align 1, !tbaa !15
  %38 = getelementptr inbounds nuw i8, ptr %.12030.i, i64 1
  %39 = load i8, ptr %.12030.i, align 1, !tbaa !15
  %40 = xor i8 %39, %37
  store i8 %40, ptr %.12030.i, align 1, !tbaa !15
  %41 = add nsw i32 %.12329.i, -1
  %.not40.i = icmp eq i32 %41, 0
  br i1 %.not40.i, label %xorbuf.exit, label %.lr.ph.split.i, !llvm.loop !25

.lr.ph38.i:                                       ; preds = %.lr.ph.split, %.lr.ph38.i
  %indvars.iv.i = phi i64 [ %indvars.iv.next.i, %.lr.ph38.i ], [ 0, %.lr.ph.split ]
  %42 = getelementptr inbounds nuw i8, ptr %.02235, i64 %indvars.iv.i
  %43 = load i8, ptr %42, align 1, !tbaa !15
  %44 = getelementptr inbounds nuw i8, ptr %12, i64 %indvars.iv.i
  %45 = load i8, ptr %44, align 1, !tbaa !15
  %46 = xor i8 %45, %43
  store i8 %46, ptr %44, align 1, !tbaa !15
  %indvars.iv.next.i = add nuw nsw i64 %indvars.iv.i, 1
  %exitcond.not.i = icmp eq i64 %indvars.iv.next.i, 16
  br i1 %exitcond.not.i, label %xorbuf.exit, label %.lr.ph38.i, !llvm.loop !20

xorbuf.exit:                                      ; preds = %.lr.ph38.i, %.lr.ph.split.i
  %47 = tail call fastcc i32 @wc_AesEncrypt(ptr noundef %0, ptr noundef %12, ptr noundef %12)
  %.not30 = icmp eq i32 %47, 0
  br i1 %.not30, label %48, label %.loopexit

48:                                               ; preds = %xorbuf.exit
  tail call void @llvm.memcpy.p0.p0.i64(ptr noundef nonnull align 1 dereferenceable(16) %.02334, ptr noundef nonnull align 16 dereferenceable(16) %12, i64 16, i1 false)
  %49 = getelementptr inbounds nuw i8, ptr %.02334, i64 16
  %50 = getelementptr inbounds nuw i8, ptr %.02235, i64 16
  %51 = add nsw i32 %35, -1
  %.not = icmp eq i32 %35, 0
  br i1 %.not, label %.loopexit, label %.lr.ph.split, !llvm.loop !24

.loopexit:                                        ; preds = %xorbuf.exit, %48, %xorbuf.exit.us, %31, %9, %4
  %.021 = phi i32 [ -173, %4 ], [ 0, %9 ], [ %30, %xorbuf.exit.us ], [ 0, %31 ], [ %47, %xorbuf.exit ], [ 0, %48 ]
  ret i32 %.021
}